target datalayout = "e-m:e-p270:32:32-p271:32:32-p272:64:64-i64:64-i128:128-f80:128-n8:16:32:64-S128"
target triple = "x86_64-pc-linux-gnu"

%struct.AVFilterContext = type { ptr, ptr, ptr, ptr, ptr, i32, ptr, ptr, i32, ptr, ptr, i32, i32, ptr, ptr, ptr, ptr, i32, ptr, i32, i32 }
%struct.OverlayContext = type { ptr, i32, i32, i8, [4 x i8], i8, i8, [4 x i8], i8, i32, i32, i32, %struct.FFFrameSync, [4 x i32], [4 x i32], i32, i32, ptr, [14 x double], ptr, ptr, ptr, ptr, [4 x ptr], ptr }
%struct.FFFrameSync = type { ptr, ptr, i32, %struct.AVRational, i64, ptr, ptr, i32, i32, i8, i8, ptr, i32, i32, i32, i32 }
%struct.AVRational = type { i32, i32 }

; Function Attrs: cold nounwind optsize uwtable
define internal void @uninit(ptr noundef %0) #1 {
  %2 = alloca ptr, align 8
  %3 = alloca ptr, align 8
  store ptr %0, ptr %2, align 8, !tbaa !4
  call void @llvm.lifetime.start.p0(i64 8, ptr %3) #12
  %4 = load ptr, ptr %2, align 8, !tbaa !4
  %5 = getelementptr inbounds nuw %struct.AVFilterContext, ptr %4, i32 0, i32 9
  %6 = load ptr, ptr %5, align 8, !tbaa !9
  store ptr %6, ptr %3, align 8, !tbaa !22
  %7 = load ptr, ptr %3, align 8, !tbaa !22
  %8 = getelementptr inbounds nuw %struct.OverlayContext, ptr %7, i32 0, i32 12
  call void @ff_framesync_uninit(ptr noundef %8)
  %9 = load ptr, ptr %3, align 8, !tbaa !22
  %10 = getelementptr inbounds nuw %struct.OverlayContext, ptr %9, i32 0, i32 21
  %11 = load ptr, ptr %10, align 8, !tbaa !32
  call void @av_expr_free(ptr noundef %11)
  %12 = load ptr, ptr %3, align 8, !tbaa !22
  %13 = getelementptr inbounds nuw %struct.OverlayContext, ptr %12, i32 0, i32 21
  store ptr null, ptr %13, align 8, !tbaa !32
  %14 = load ptr, ptr %3, align 8, !tbaa !22
  %15 = getelementptr inbounds nuw %struct.OverlayContext, ptr %14, i32 0, i32 22
  %16 = load ptr, ptr %15, align 8, !tbaa !33
  call void @av_expr_free(ptr noundef %16)
  %17 = load ptr, ptr %3, align 8, !tbaa !22
  %18 = getelementptr inbounds nuw %struct.OverlayContext, ptr %17, i32 0, i32 22
  store ptr null, ptr %18, align 8, !tbaa !33
  call void @llvm.lifetime.end.p0(i64 8, ptr %3) #12
  ret void
}