; Function Attrs: cold nounwind optsize uwtable
define internal void @uninit(ptr noundef readonly captures(none) %0) #2 {
  %2 = getelementptr inbounds nuw i8, ptr %0, i64 72
  %3 = load ptr, ptr %2, align 8, !tbaa !4
  %4 = getelementptr inbounds nuw i8, ptr %3, i64 40
  tail call void @ff_framesync_uninit(ptr noundef nonnull %4) #10
  %5 = getelementptr inbounds nuw i8, ptr %3, i64 312
  %6 = load ptr, ptr %5, align 8, !tbaa !29
  tail call void @av_expr_free(ptr noundef %6) #10
  store ptr null, ptr %5, align 8, !tbaa !29
  %7 = getelementptr inbounds nuw i8, ptr %3, i64 320
  %8 = load ptr, ptr %7, align 8, !tbaa !30
  tail call void @av_expr_free(ptr noundef %8) #10
  store ptr null, ptr %7, align 8, !tbaa !30
  ret void
}